target datalayout = "e-m:e-p270:32:32-p271:32:32-p272:64:64-i64:64-i128:128-f80:128-n8:16:32:64-S128"
target triple = "x86_64-pc-linux-gnu"

%struct.PJconsts = type { ptr, ptr, ptr, ptr, ptr, ptr, ptr, ptr, ptr, ptr, ptr, ptr, i32, ptr, ptr, ptr, ptr, ptr, ptr, ptr, ptr, double, double, double, double, double, double, double, double, double, double, double, double, double, double, double, double, double, double, double, double, double, double, i32, i32, i32, i32, i32, i32, i32, i32, i32, i32, i32, ptr, ptr, ptr, ptr, ptr, ptr, double, double, double, double, double, double, double, double, double, double, double, i32, [7 x double], i32, ptr, ptr, double, double, i32, [4 x i8], %"class.std::shared_ptr", i8, double, i8, %"class.std::__cxx11::basic_string", %"class.std::__cxx11::basic_string", %"class.std::__cxx11::basic_string", i8, %"class.std::vector", i32, %"class.std::vector.3", i32, i8, i8, i8, ptr }
%"class.std::shared_ptr" = type { %"class.std::__shared_ptr" }
%"class.std::__shared_ptr" = type { ptr, %"class.std::__shared_count" }
%"class.std::__shared_count" = type { ptr }
%"class.std::__cxx11::basic_string" = type { %"struct.std::__cxx11::basic_string<char>::_Alloc_hider", i64, %union.anon }
%"struct.std::__cxx11::basic_string<char>::_Alloc_hider" = type { ptr }
%union.anon = type { i64, [8 x i8] }
%"class.std::vector" = type { %"struct.std::_Vector_base" }
%"struct.std::_Vector_base" = type { %"struct.std::_Vector_base<osgeo::proj::operation::GridDescription, std::allocator<osgeo::proj::operation::GridDescription>>::_Vector_impl" }
%"struct.std::_Vector_base<osgeo::proj::operation::GridDescription, std::allocator<osgeo::proj::operation::GridDescription>>::_Vector_impl" = type { %"struct.std::_Vector_base<osgeo::proj::operation::GridDescription, std::allocator<osgeo::proj::operation::GridDescription>>::_Vector_impl_data" }
%"struct.std::_Vector_base<osgeo::proj::operation::GridDescription, std::allocator<osgeo::proj::operation::GridDescription>>::_Vector_impl_data" = type { ptr, ptr, ptr }
%"class.std::vector.3" = type { %"struct.std::_Vector_base.4" }
%"struct.std::_Vector_base.4" = type { %"struct.std::_Vector_base<PJCoordOperation, std::allocator<PJCoordOperation>>::_Vector_impl" }
%"struct.std::_Vector_base<PJCoordOperation, std::allocator<PJCoordOperation>>::_Vector_impl" = type { %"struct.std::_Vector_base<PJCoordOperation, std::allocator<PJCoordOperation>>::_Vector_impl_data" }
%"struct.std::_Vector_base<PJCoordOperation, std::allocator<PJCoordOperation>>::_Vector_impl_data" = type { ptr, ptr, ptr }
%"struct.(anonymous namespace)::pj_poly_data" = type { double, ptr }
%struct.PJ_LP = type { double, double }
%struct.PJ_XY = type { double, double }

; Function Attrs: mustprogress uwtable
define internal { double, double } @_ZL14poly_e_inverse5PJ_XYP8PJconsts(double %0, double %1, ptr noundef %2) #0 {
  %4 = alloca %struct.PJ_LP, align 8
  %5 = alloca %struct.PJ_XY, align 8
  %6 = alloca ptr, align 8
  %7 = alloca ptr, align 8
  %8 = alloca i32, align 4
  %9 = alloca double, align 8
  %10 = alloca double, align 8
  %11 = alloca double, align 8
  %12 = alloca double, align 8
  %13 = alloca i32, align 4
  %14 = alloca double, align 8
  %15 = alloca double, align 8
  %16 = alloca double, align 8
  %17 = alloca double, align 8
  %18 = alloca double, align 8
  %19 = alloca double, align 8
  %20 = getelementptr inbounds nuw { double, double }, ptr %5, i32 0, i32 0
  store double %0, ptr %20, align 8
  %21 = getelementptr inbounds nuw { double, double }, ptr %5, i32 0, i32 1
  store double %1, ptr %21, align 8
  store ptr %2, ptr %6, align 8, !tbaa !3
  call void @llvm.memset.p0.i64(ptr align 8 %4, i8 0, i64 16, i1 false)
  call void @llvm.lifetime.start.p0(i64 8, ptr %7) #8
  %22 = load ptr, ptr %6, align 8, !tbaa !3
  %23 = getelementptr inbounds nuw %struct.PJconsts, ptr %22, i32 0, i32 11
  %24 = load ptr, ptr %23, align 8, !tbaa !43
  store ptr %24, ptr %7, align 8, !tbaa !41
  %25 = load ptr, ptr %7, align 8, !tbaa !41
  %26 = getelementptr inbounds nuw %"struct.(anonymous namespace)::pj_poly_data", ptr %25, i32 0, i32 0
  %27 = load double, ptr %26, align 8, !tbaa !52
  %28 = getelementptr inbounds nuw %struct.PJ_XY, ptr %5, i32 0, i32 1
  %29 = load double, ptr %28, align 8, !tbaa !55
  %30 = fadd double %29, %27
  store double %30, ptr %28, align 8, !tbaa !55
  %31 = getelementptr inbounds nuw %struct.PJ_XY, ptr %5, i32 0, i32 1
  %32 = load double, ptr %31, align 8, !tbaa !55
  %33 = call double @llvm.fabs.f64(double %32)
  %34 = fcmp ole double %33, 1.000000e-10
  br i1 %34, label %35, label %40

35:                                               ; preds = %3
  %36 = getelementptr inbounds nuw %struct.PJ_XY, ptr %5, i32 0, i32 0
  %37 = load double, ptr %36, align 8, !tbaa !57
  %38 = getelementptr inbounds nuw %struct.PJ_LP, ptr %4, i32 0, i32 0
  store double %37, ptr %38, align 8, !tbaa !58
  %39 = getelementptr inbounds nuw %struct.PJ_LP, ptr %4, i32 0, i32 1
  store double 0.000000e+00, ptr %39, align 8, !tbaa !60
  br label %206

40:                                               ; preds = %3
  call void @llvm.lifetime.start.p0(i64 4, ptr %8) #8
  call void @llvm.lifetime.start.p0(i64 8, ptr %9) #8
  %41 = getelementptr inbounds nuw %struct.PJ_XY, ptr %5, i32 0, i32 1
  %42 = load double, ptr %41, align 8, !tbaa !55
  %43 = getelementptr inbounds nuw %struct.PJ_XY, ptr %5, i32 0, i32 1
  %44 = load double, ptr %43, align 8, !tbaa !55
  %45 = getelementptr inbounds nuw %struct.PJ_XY, ptr %5, i32 0, i32 0
  %46 = load double, ptr %45, align 8, !tbaa !57
  %47 = getelementptr inbounds nuw %struct.PJ_XY, ptr %5, i32 0, i32 0
  %48 = load double, ptr %47, align 8, !tbaa !57
  %49 = fmul double %46, %48
  %50 = call double @llvm.fmuladd.f64(double %42, double %44, double %49)
  store double %50, ptr %9, align 8, !tbaa !61
  %51 = getelementptr inbounds nuw %struct.PJ_XY, ptr %5, i32 0, i32 1
  %52 = load double, ptr %51, align 8, !tbaa !55
  %53 = getelementptr inbounds nuw %struct.PJ_LP, ptr %4, i32 0, i32 1
  store double %52, ptr %53, align 8, !tbaa !60
  store i32 20, ptr %8, align 4, !tbaa !51
  br label %54

54:                                               ; preds = %168, %40
  %55 = load i32, ptr %8, align 4, !tbaa !51
  %56 = icmp ne i32 %55, 0
  br i1 %56, label %57, label %171

57:                                               ; preds = %54
  call void @llvm.lifetime.start.p0(i64 8, ptr %10) #8
  %58 = getelementptr inbounds nuw %struct.PJ_LP, ptr %4, i32 0, i32 1
  %59 = load double, ptr %58, align 8, !tbaa !60
  %60 = call double @sin(double noundef %59) #8, !tbaa !51
  store double %60, ptr %10, align 8, !tbaa !61
  call void @llvm.lifetime.start.p0(i64 8, ptr %11) #8
  %61 = getelementptr inbounds nuw %struct.PJ_LP, ptr %4, i32 0, i32 1
  %62 = load double, ptr %61, align 8, !tbaa !60
  %63 = call double @cos(double noundef %62) #8, !tbaa !51
  store double %63, ptr %11, align 8, !tbaa !61
  call void @llvm.lifetime.start.p0(i64 8, ptr %12) #8
  %64 = load double, ptr %10, align 8, !tbaa !61
  %65 = load double, ptr %11, align 8, !tbaa !61
  %66 = fmul double %64, %65
  store double %66, ptr %12, align 8, !tbaa !61
  %67 = load double, ptr %11, align 8, !tbaa !61
  %68 = call double @llvm.fabs.f64(double %67)
  %69 = fcmp olt double %68, 0x3D719799812DEA11
  br i1 %69, label %70, label %73

70:                                               ; preds = %57
  %71 = load ptr, ptr %6, align 8, !tbaa !3
  %72 = call i32 @proj_errno_set(ptr noundef %71, i32 noundef 2050)
  store i32 1, ptr %13, align 4
  br label %165

73:                                               ; preds = %57
  call void @llvm.lifetime.start.p0(i64 8, ptr %14) #8
  %74 = load ptr, ptr %6, align 8, !tbaa !3
  %75 = getelementptr inbounds nuw %struct.PJconsts, ptr %74, i32 0, i32 27
  %76 = load double, ptr %75, align 8, !tbaa !45
  %77 = load double, ptr %10, align 8, !tbaa !61
  %78 = fmul double %76, %77
  %79 = load double, ptr %10, align 8, !tbaa !61
  %80 = fneg double %78
  %81 = call double @llvm.fmuladd.f64(double %80, double %79, double 1.000000e+00)
  %82 = call double @sqrt(double noundef %81) #8, !tbaa !51
  store double %82, ptr %14, align 8, !tbaa !61
  call void @llvm.lifetime.start.p0(i64 8, ptr %15) #8
  %83 = load double, ptr %10, align 8, !tbaa !61
  %84 = load double, ptr %14, align 8, !tbaa !61
  %85 = fmul double %83, %84
  %86 = load double, ptr %11, align 8, !tbaa !61
  %87 = fdiv double %85, %86
  store double %87, ptr %15, align 8, !tbaa !61
  call void @llvm.lifetime.start.p0(i64 8, ptr %16) #8
  %88 = getelementptr inbounds nuw %struct.PJ_LP, ptr %4, i32 0, i32 1
  %89 = load double, ptr %88, align 8, !tbaa !60
  %90 = load double, ptr %10, align 8, !tbaa !61
  %91 = load double, ptr %11, align 8, !tbaa !61
  %92 = load ptr, ptr %7, align 8, !tbaa !41
  %93 = getelementptr inbounds nuw %"struct.(anonymous namespace)::pj_poly_data", ptr %92, i32 0, i32 1
  %94 = load ptr, ptr %93, align 8, !tbaa !47
  %95 = call noundef double @_Z7pj_mlfndddPKd(double noundef %89, double noundef %90, double noundef %91, ptr noundef %94)
  store double %95, ptr %16, align 8, !tbaa !61
  call void @llvm.lifetime.start.p0(i64 8, ptr %17) #8
  %96 = load double, ptr %16, align 8, !tbaa !61
  %97 = load double, ptr %16, align 8, !tbaa !61
  %98 = load double, ptr %9, align 8, !tbaa !61
  %99 = call double @llvm.fmuladd.f64(double %96, double %97, double %98)
  store double %99, ptr %17, align 8, !tbaa !61
  %100 = load ptr, ptr %6, align 8, !tbaa !3
  %101 = getelementptr inbounds nuw %struct.PJconsts, ptr %100, i32 0, i32 32
  %102 = load double, ptr %101, align 8, !tbaa !62
  %103 = load double, ptr %14, align 8, !tbaa !61
  %104 = load double, ptr %14, align 8, !tbaa !61
  %105 = fmul double %103, %104
  %106 = load double, ptr %14, align 8, !tbaa !61
  %107 = fmul double %105, %106
  %108 = fdiv double %102, %107
  store double %108, ptr %14, align 8, !tbaa !61
  call void @llvm.lifetime.start.p0(i64 8, ptr %18) #8
  %109 = load double, ptr %16, align 8, !tbaa !61
  %110 = load double, ptr %16, align 8, !tbaa !61
  %111 = fadd double %109, %110
  %112 = load double, ptr %15, align 8, !tbaa !61
  %113 = load double, ptr %17, align 8, !tbaa !61
  %114 = call double @llvm.fmuladd.f64(double %112, double %113, double %111)
  %115 = getelementptr inbounds nuw %struct.PJ_XY, ptr %5, i32 0, i32 1
  %116 = load double, ptr %115, align 8, !tbaa !55
  %117 = fmul double 2.000000e+00, %116
  %118 = load double, ptr %15, align 8, !tbaa !61
  %119 = load double, ptr %16, align 8, !tbaa !61
  %120 = call double @llvm.fmuladd.f64(double %118, double %119, double 1.000000e+00)
  %121 = fneg double %117
  %122 = call double @llvm.fmuladd.f64(double %121, double %120, double %114)
  %123 = load ptr, ptr %6, align 8, !tbaa !3
  %124 = getelementptr inbounds nuw %struct.PJconsts, ptr %123, i32 0, i32 27
  %125 = load double, ptr %124, align 8, !tbaa !45
  %126 = load double, ptr %12, align 8, !tbaa !61
  %127 = fmul double %125, %126
  %128 = load double, ptr %17, align 8, !tbaa !61
  %129 = getelementptr inbounds nuw %struct.PJ_XY, ptr %5, i32 0, i32 1
  %130 = load double, ptr %129, align 8, !tbaa !55
  %131 = fmul double 2.000000e+00, %130
  %132 = load double, ptr %16, align 8, !tbaa !61
  %133 = fneg double %131
  %134 = call double @llvm.fmuladd.f64(double %133, double %132, double %128)
  %135 = fmul double %127, %134
  %136 = load double, ptr %15, align 8, !tbaa !61
  %137 = fdiv double %135, %136
  %138 = getelementptr inbounds nuw %struct.PJ_XY, ptr %5, i32 0, i32 1
  %139 = load double, ptr %138, align 8, !tbaa !55
  %140 = load double, ptr %16, align 8, !tbaa !61
  %141 = fsub double %139, %140
  %142 = fmul double 2.000000e+00, %141
  %143 = load double, ptr %15, align 8, !tbaa !61
  %144 = load double, ptr %14, align 8, !tbaa !61
  %145 = load double, ptr %12, align 8, !tbaa !61
  %146 = fdiv double 1.000000e+00, %145
  %147 = fneg double %146
  %148 = call double @llvm.fmuladd.f64(double %143, double %144, double %147)
  %149 = call double @llvm.fmuladd.f64(double %142, double %148, double %137)
  %150 = load double, ptr %14, align 8, !tbaa !61
  %151 = fsub double %149, %150
  %152 = load double, ptr %14, align 8, !tbaa !61
  %153 = fsub double %151, %152
  %154 = fdiv double %122, %153
  store double %154, ptr %18, align 8, !tbaa !61
  %155 = load double, ptr %18, align 8, !tbaa !61
  %156 = getelementptr inbounds nuw %struct.PJ_LP, ptr %4, i32 0, i32 1
  %157 = load double, ptr %156, align 8, !tbaa !60
  %158 = fadd double %157, %155
  store double %158, ptr %156, align 8, !tbaa !60
  %159 = load double, ptr %18, align 8, !tbaa !61
  %160 = call double @llvm.fabs.f64(double %159)
  %161 = fcmp ole double %160, 0x3D719799812DEA11
  br i1 %161, label %162, label %163

162:                                              ; preds = %73
  store i32 2, ptr %13, align 4
  br label %164

163:                                              ; preds = %73
  store i32 0, ptr %13, align 4
  br label %164

164:                                              ; preds = %163, %162
  call void @llvm.lifetime.end.p0(i64 8, ptr %18) #8
  call void @llvm.lifetime.end.p0(i64 8, ptr %17) #8
  call void @llvm.lifetime.end.p0(i64 8, ptr %16) #8
  call void @llvm.lifetime.end.p0(i64 8, ptr %15) #8
  call void @llvm.lifetime.end.p0(i64 8, ptr %14) #8
  br label %165

165:                                              ; preds = %164, %70
  call void @llvm.lifetime.end.p0(i64 8, ptr %12) #8
  call void @llvm.lifetime.end.p0(i64 8, ptr %11) #8
  call void @llvm.lifetime.end.p0(i64 8, ptr %10) #8
  %166 = load i32, ptr %13, align 4
  switch i32 %166, label %203 [
    i32 0, label %167
    i32 2, label %171
  ]

167:                                              ; preds = %165
  br label %168

168:                                              ; preds = %167
  %169 = load i32, ptr %8, align 4, !tbaa !51
  %170 = add nsw i32 %169, -1
  store i32 %170, ptr %8, align 4, !tbaa !51
  br label %54, !llvm.loop !63

171:                                              ; preds = %165, %54
  %172 = load i32, ptr %8, align 4, !tbaa !51
  %173 = icmp ne i32 %172, 0
  br i1 %173, label %177, label %174

174:                                              ; preds = %171
  %175 = load ptr, ptr %6, align 8, !tbaa !3
  %176 = call i32 @proj_errno_set(ptr noundef %175, i32 noundef 2050)
  store i32 1, ptr %13, align 4
  br label %203

177:                                              ; preds = %171
  call void @llvm.lifetime.start.p0(i64 8, ptr %19) #8
  %178 = getelementptr inbounds nuw %struct.PJ_LP, ptr %4, i32 0, i32 1
  %179 = load double, ptr %178, align 8, !tbaa !60
  %180 = call double @sin(double noundef %179) #8, !tbaa !51
  store double %180, ptr %19, align 8, !tbaa !61
  %181 = getelementptr inbounds nuw %struct.PJ_XY, ptr %5, i32 0, i32 0
  %182 = load double, ptr %181, align 8, !tbaa !57
  %183 = getelementptr inbounds nuw %struct.PJ_LP, ptr %4, i32 0, i32 1
  %184 = load double, ptr %183, align 8, !tbaa !60
  %185 = call double @tan(double noundef %184) #8, !tbaa !51
  %186 = fmul double %182, %185
  %187 = load ptr, ptr %6, align 8, !tbaa !3
  %188 = getelementptr inbounds nuw %struct.PJconsts, ptr %187, i32 0, i32 27
  %189 = load double, ptr %188, align 8, !tbaa !45
  %190 = load double, ptr %19, align 8, !tbaa !61
  %191 = fmul double %189, %190
  %192 = load double, ptr %19, align 8, !tbaa !61
  %193 = fneg double %191
  %194 = call double @llvm.fmuladd.f64(double %193, double %192, double 1.000000e+00)
  %195 = call double @sqrt(double noundef %194) #8, !tbaa !51
  %196 = fmul double %186, %195
  %197 = call double @asin(double noundef %196) #8, !tbaa !51
  %198 = getelementptr inbounds nuw %struct.PJ_LP, ptr %4, i32 0, i32 1
  %199 = load double, ptr %198, align 8, !tbaa !60
  %200 = call double @sin(double noundef %199) #8, !tbaa !51
  %201 = fdiv double %197, %200
  %202 = getelementptr inbounds nuw %struct.PJ_LP, ptr %4, i32 0, i32 0
  store double %201, ptr %202, align 8, !tbaa !58
  call void @llvm.lifetime.end.p0(i64 8, ptr %19) #8
  store i32 0, ptr %13, align 4
  br label %203

203:                                              ; preds = %177, %174, %165
  call void @llvm.lifetime.end.p0(i64 8, ptr %9) #8
  call void @llvm.lifetime.end.p0(i64 4, ptr %8) #8
  %204 = load i32, ptr %13, align 4
  switch i32 %204, label %207 [
    i32 0, label %205
  ]

205:                                              ; preds = %203
  br label %206

206:                                              ; preds = %205, %35
  store i32 1, ptr %13, align 4
  br label %207

207:                                              ; preds = %206, %203
  call void @llvm.lifetime.end.p0(i64 8, ptr %7) #8
  %208 = load { double, double }, ptr %4, align 8
  ret { double, double } %208
}