; Function Attrs: mustprogress uwtable
define internal { double, double } @_ZL14poly_e_inverse5PJ_XYP8PJconsts(double %0, double %1, ptr noundef %2) #0 {
  %4 = getelementptr inbounds nuw i8, ptr %2, i64 88
  %5 = load ptr, ptr %4, align 8, !tbaa !40
  %6 = load double, ptr %5, align 8, !tbaa !49
  %7 = fadd double %1, %6
  %8 = tail call double @llvm.fabs.f64(double %7)
  %9 = fcmp ugt double %8, 1.000000e-10
  br i1 %9, label %10, label %75

10:                                               ; preds = %3
  %11 = fmul double %0, %0
  %12 = tail call double @llvm.fmuladd.f64(double %7, double %7, double %11)
  %13 = getelementptr inbounds nuw i8, ptr %2, i64 216
  %14 = getelementptr inbounds nuw i8, ptr %5, i64 8
  %15 = getelementptr inbounds nuw i8, ptr %2, i64 256
  %16 = fmul double %7, -2.000000e+00
  br label %19

17:                                               ; preds = %25
  %18 = add nsw i32 %.078, -1
  %.not = icmp eq i32 %18, 0
  br i1 %.not, label %61, label %19, !llvm.loop !52

19:                                               ; preds = %10, %17
  %.sroa.4.179 = phi double [ %7, %10 ], [ %58, %17 ]
  %.078 = phi i32 [ 20, %10 ], [ %18, %17 ]
  %20 = tail call double @sin(double noundef %.sroa.4.179) #8, !tbaa !48
  %21 = tail call double @cos(double noundef %.sroa.4.179) #8, !tbaa !48
  %22 = tail call double @llvm.fabs.f64(double %21)
  %23 = fcmp olt double %22, 0x3D719799812DEA11
  br i1 %23, label %.thread, label %25

.thread:                                          ; preds = %19
  %24 = tail call i32 @proj_errno_set(ptr noundef nonnull %2, i32 noundef 2050)
  br label %75

25:                                               ; preds = %19
  %26 = fmul double %20, %21
  %27 = load double, ptr %13, align 8, !tbaa !42
  %28 = fneg double %20
  %29 = fmul double %27, %28
  %30 = tail call double @llvm.fmuladd.f64(double %29, double %20, double 1.000000e+00)
  %31 = tail call double @sqrt(double noundef %30) #8, !tbaa !48
  %32 = fmul double %20, %31
  %33 = fdiv double %32, %21
  %34 = load ptr, ptr %14, align 8, !tbaa !44
  %35 = tail call noundef double @_Z7pj_mlfndddPKd(double noundef %.sroa.4.179, double noundef %20, double noundef %21, ptr noundef %34)
  %36 = tail call double @llvm.fmuladd.f64(double %35, double %35, double %12)
  %37 = load double, ptr %15, align 8, !tbaa !54
  %38 = fmul double %31, %31
  %39 = fmul double %31, %38
  %40 = fdiv double %37, %39
  %41 = fadd double %35, %35
  %42 = tail call double @llvm.fmuladd.f64(double %33, double %36, double %41)
  %43 = tail call double @llvm.fmuladd.f64(double %33, double %35, double 1.000000e+00)
  %44 = tail call double @llvm.fmuladd.f64(double %16, double %43, double %42)
  %45 = load double, ptr %13, align 8, !tbaa !42
  %46 = fmul double %26, %45
  %47 = tail call double @llvm.fmuladd.f64(double %16, double %35, double %36)
  %48 = fmul double %47, %46
  %49 = fdiv double %48, %33
  %50 = fsub double %7, %35
  %51 = fmul double %50, 2.000000e+00
  %52 = fdiv double -1.000000e+00, %26
  %53 = tail call double @llvm.fmuladd.f64(double %33, double %40, double %52)
  %54 = tail call double @llvm.fmuladd.f64(double %51, double %53, double %49)
  %55 = fsub double %54, %40
  %56 = fsub double %55, %40
  %57 = fdiv double %44, %56
  %58 = fadd double %.sroa.4.179, %57
  %59 = tail call double @llvm.fabs.f64(double %57)
  %60 = fcmp ugt double %59, 0x3D719799812DEA11
  br i1 %60, label %17, label %63

61:                                               ; preds = %17
  %62 = tail call i32 @proj_errno_set(ptr noundef nonnull %2, i32 noundef 2050)
  br label %75

63:                                               ; preds = %25
  %64 = tail call double @sin(double noundef %58) #8, !tbaa !48
  %65 = tail call double @tan(double noundef %58) #8, !tbaa !48
  %66 = fmul double %0, %65
  %67 = fneg double %64
  %68 = fmul double %45, %67
  %69 = tail call double @llvm.fmuladd.f64(double %68, double %64, double 1.000000e+00)
  %70 = tail call double @sqrt(double noundef %69) #8, !tbaa !48
  %71 = fmul double %66, %70
  %72 = tail call double @asin(double noundef %71) #8, !tbaa !48
  %73 = tail call double @sin(double noundef %58) #8, !tbaa !48
  %74 = fdiv double %72, %73
  br label %75

75:                                               ; preds = %.thread, %61, %63, %3
  %.sroa.4.5 = phi double [ 0.000000e+00, %3 ], [ %58, %63 ], [ %58, %61 ], [ %.sroa.4.179, %.thread ]
  %.sroa.059.2 = phi double [ %0, %3 ], [ %74, %63 ], [ 0.000000e+00, %61 ], [ 0.000000e+00, %.thread ]
  %.fca.0.insert = insertvalue { double, double } poison, double %.sroa.059.2, 0
  %.fca.1.insert = insertvalue { double, double } %.fca.0.insert, double %.sroa.4.5, 1
  ret { double, double } %.fca.1.insert
}